target datalayout = "e-m:e-p270:32:32-p271:32:32-p272:64:64-i64:64-i128:128-f80:128-n8:16:32:64-S128"
target triple = "x86_64-pc-linux-gnu"

%"class.cv::Mat" = type { i32, i32, i32, i32, ptr, ptr, ptr, ptr, ptr, ptr, %"struct.cv::MatSize", %"struct.cv::MatStep" }
%"struct.cv::MatSize" = type { ptr }
%"struct.cv::MatStep" = type { ptr, [2 x i64] }
%"class.cv::cuda::GpuMat" = type { i32, i32, i32, i64, ptr, ptr, ptr, ptr, ptr }
%"class.cv::_OutputArray" = type { %"class.cv::_InputArray" }
%"class.cv::_InputArray" = type { i32, ptr, %"class.cv::Size_" }
%"class.cv::Size_" = type { i32, i32 }
%"class.cv::ogl::Buffer" = type <{ %"struct.cv::Ptr", i32, i32, i32, [4 x i8] }>
%"struct.cv::Ptr" = type { %"class.std::shared_ptr" }
%"class.std::shared_ptr" = type { %"class.std::__shared_ptr" }
%"class.std::__shared_ptr" = type { ptr, %"class.std::__shared_count" }
%"class.std::__shared_count" = type { ptr }

; Function Attrs: inlinehint mustprogress nounwind uwtable
define linkonce_odr hidden void @_ZN2cv5Size_IiEC2Ev(ptr noundef nonnull align 4 dereferenceable(8) %0) unnamed_addr #4 comdat align 2 {
  %2 = alloca ptr, align 8
  store ptr %0, ptr %2, align 8, !tbaa !61
  %3 = load ptr, ptr %2, align 8
  %4 = getelementptr inbounds nuw %"class.cv::Size_", ptr %3, i32 0, i32 0
  store i32 0, ptr %4, align 4, !tbaa !63
  %5 = getelementptr inbounds nuw %"class.cv::Size_", ptr %3, i32 0, i32 1
  store i32 0, ptr %5, align 4, !tbaa !64
  ret void
}

; Function Attrs: inlinehint mustprogress nounwind uwtable
define linkonce_odr hidden void @_ZN2cv11_InputArray4initEiPKv(ptr noundef nonnull align 8 dereferenceable(24) %0, i32 noundef %1, ptr noundef %2) #4 comdat align 2 {
  %4 = alloca ptr, align 8
  %5 = alloca i32, align 4
  %6 = alloca ptr, align 8
  store ptr %0, ptr %4, align 8, !tbaa !3
  store i32 %1, ptr %5, align 4, !tbaa !16
  store ptr %2, ptr %6, align 8, !tbaa !37
  %7 = load ptr, ptr %4, align 8
  %8 = load i32, ptr %5, align 4, !tbaa !16
  %9 = getelementptr inbounds nuw %"class.cv::_InputArray", ptr %7, i32 0, i32 0
  store i32 %8, ptr %9, align 8, !tbaa !60
  %10 = load ptr, ptr %6, align 8, !tbaa !37
  %11 = getelementptr inbounds nuw %"class.cv::_InputArray", ptr %7, i32 0, i32 1
  store ptr %10, ptr %11, align 8, !tbaa !18
  ret void
}

; Function Attrs: inlinehint mustprogress uwtable
define linkonce_odr hidden void @_ZN2cv11_InputArrayC2Ev(ptr noundef nonnull align 8 dereferenceable(24) %0) unnamed_addr #3 comdat align 2 {
  %2 = alloca ptr, align 8
  store ptr %0, ptr %2, align 8, !tbaa !3
  %3 = load ptr, ptr %2, align 8
  %4 = getelementptr inbounds nuw %"class.cv::_InputArray", ptr %3, i32 0, i32 2
  call void @_ZN2cv5Size_IiEC2Ev(ptr noundef nonnull align 4 dereferenceable(8) %4)
  call void @_ZN2cv11_InputArray4initEiPKv(ptr noundef nonnull align 8 dereferenceable(24) %3, i32 noundef 0, ptr noundef null)
  ret void
}

; Function Attrs: inlinehint mustprogress uwtable
define linkonce_odr hidden void @_ZN2cv11_InputArrayC2ERKNS_3MatE(ptr noundef nonnull align 8 dereferenceable(24) %0, ptr noundef nonnull align 8 dereferenceable(96) %1) unnamed_addr #3 comdat align 2 {
  %3 = alloca ptr, align 8
  %4 = alloca ptr, align 8
  store ptr %0, ptr %3, align 8, !tbaa !3
  store ptr %1, ptr %4, align 8, !tbaa !8
  %5 = load ptr, ptr %3, align 8
  %6 = getelementptr inbounds nuw %"class.cv::_InputArray", ptr %5, i32 0, i32 2
  call void @_ZN2cv5Size_IiEC2Ev(ptr noundef nonnull align 4 dereferenceable(8) %6)
  %7 = load ptr, ptr %4, align 8, !tbaa !8
  call void @_ZN2cv11_InputArray4initEiPKv(ptr noundef nonnull align 8 dereferenceable(24) %5, i32 noundef 16842752, ptr noundef %7)
  ret void
}

; Function Attrs: inlinehint mustprogress uwtable
define linkonce_odr hidden void @_ZNK2cv11_InputArray6getMatEi(ptr dead_on_unwind noalias writable sret(%"class.cv::Mat") align 8 %0, ptr noundef nonnull align 8 dereferenceable(24) %1, i32 noundef %2) #3 comdat align 2 {
  %4 = alloca ptr, align 8
  %5 = alloca ptr, align 8
  %6 = alloca i32, align 4
  store ptr %0, ptr %4, align 8
  store ptr %1, ptr %5, align 8, !tbaa !3
  store i32 %2, ptr %6, align 4, !tbaa !16
  %7 = load ptr, ptr %5, align 8
  %8 = call noundef i32 @_ZNK2cv11_InputArray4kindEv(ptr noundef nonnull align 8 dereferenceable(24) %7)
  %9 = icmp eq i32 %8, 65536
  br i1 %9, label %10, label %16

10:                                               ; preds = %3
  %11 = load i32, ptr %6, align 4, !tbaa !16
  %12 = icmp slt i32 %11, 0
  br i1 %12, label %13, label %16

13:                                               ; preds = %10
  %14 = getelementptr inbounds nuw %"class.cv::_InputArray", ptr %7, i32 0, i32 1
  %15 = load ptr, ptr %14, align 8, !tbaa !18
  call void @_ZN2cv3MatC1ERKS0_(ptr noundef nonnull align 8 dereferenceable(96) %0, ptr noundef nonnull align 8 dereferenceable(96) %15)
  br label %18

16:                                               ; preds = %10, %3
  %17 = load i32, ptr %6, align 4, !tbaa !16
  call void @_ZNK2cv11_InputArray7getMat_Ei(ptr dead_on_unwind writable sret(%"class.cv::Mat") align 8 %0, ptr noundef nonnull align 8 dereferenceable(24) %7, i32 noundef %17)
  br label %18

18:                                               ; preds = %16, %13
  ret void
}

; Function Attrs: inlinehint mustprogress nounwind uwtable
define linkonce_odr hidden void @_ZN2cv4cuda6GpuMatC2ERKS1_(ptr noundef nonnull align 8 dereferenceable(64) %0, ptr noundef nonnull align 8 dereferenceable(64) %1) unnamed_addr #4 comdat align 2 {
  %3 = alloca ptr, align 8
  %4 = alloca ptr, align 8
  %5 = alloca i32, align 4
  %6 = alloca i32, align 4
  store ptr %0, ptr %3, align 8, !tbaa !12
  store ptr %1, ptr %4, align 8, !tbaa !12
  %7 = load ptr, ptr %3, align 8
  %8 = getelementptr inbounds nuw %"class.cv::cuda::GpuMat", ptr %7, i32 0, i32 0
  %9 = load ptr, ptr %4, align 8, !tbaa !12
  %10 = getelementptr inbounds nuw %"class.cv::cuda::GpuMat", ptr %9, i32 0, i32 0
  %11 = load i32, ptr %10, align 8, !tbaa !23
  store i32 %11, ptr %8, align 8, !tbaa !23
  %12 = getelementptr inbounds nuw %"class.cv::cuda::GpuMat", ptr %7, i32 0, i32 1
  %13 = load ptr, ptr %4, align 8, !tbaa !12
  %14 = getelementptr inbounds nuw %"class.cv::cuda::GpuMat", ptr %13, i32 0, i32 1
  %15 = load i32, ptr %14, align 4, !tbaa !29
  store i32 %15, ptr %12, align 4, !tbaa !29
  %16 = getelementptr inbounds nuw %"class.cv::cuda::GpuMat", ptr %7, i32 0, i32 2
  %17 = load ptr, ptr %4, align 8, !tbaa !12
  %18 = getelementptr inbounds nuw %"class.cv::cuda::GpuMat", ptr %17, i32 0, i32 2
  %19 = load i32, ptr %18, align 8, !tbaa !30
  store i32 %19, ptr %16, align 8, !tbaa !30
  %20 = getelementptr inbounds nuw %"class.cv::cuda::GpuMat", ptr %7, i32 0, i32 3
  %21 = load ptr, ptr %4, align 8, !tbaa !12
  %22 = getelementptr inbounds nuw %"class.cv::cuda::GpuMat", ptr %21, i32 0, i32 3
  %23 = load i64, ptr %22, align 8, !tbaa !31
  store i64 %23, ptr %20, align 8, !tbaa !31
  %24 = getelementptr inbounds nuw %"class.cv::cuda::GpuMat", ptr %7, i32 0, i32 4
  %25 = load ptr, ptr %4, align 8, !tbaa !12
  %26 = getelementptr inbounds nuw %"class.cv::cuda::GpuMat", ptr %25, i32 0, i32 4
  %27 = load ptr, ptr %26, align 8, !tbaa !32
  store ptr %27, ptr %24, align 8, !tbaa !32
  %28 = getelementptr inbounds nuw %"class.cv::cuda::GpuMat", ptr %7, i32 0, i32 5
  %29 = load ptr, ptr %4, align 8, !tbaa !12
  %30 = getelementptr inbounds nuw %"class.cv::cuda::GpuMat", ptr %29, i32 0, i32 5
  %31 = load ptr, ptr %30, align 8, !tbaa !33
  store ptr %31, ptr %28, align 8, !tbaa !33
  %32 = getelementptr inbounds nuw %"class.cv::cuda::GpuMat", ptr %7, i32 0, i32 6
  %33 = load ptr, ptr %4, align 8, !tbaa !12
  %34 = getelementptr inbounds nuw %"class.cv::cuda::GpuMat", ptr %33, i32 0, i32 6
  %35 = load ptr, ptr %34, align 8, !tbaa !34
  store ptr %35, ptr %32, align 8, !tbaa !34
  %36 = getelementptr inbounds nuw %"class.cv::cuda::GpuMat", ptr %7, i32 0, i32 7
  %37 = load ptr, ptr %4, align 8, !tbaa !12
  %38 = getelementptr inbounds nuw %"class.cv::cuda::GpuMat", ptr %37, i32 0, i32 7
  %39 = load ptr, ptr %38, align 8, !tbaa !35
  store ptr %39, ptr %36, align 8, !tbaa !35
  %40 = getelementptr inbounds nuw %"class.cv::cuda::GpuMat", ptr %7, i32 0, i32 8
  %41 = load ptr, ptr %4, align 8, !tbaa !12
  %42 = getelementptr inbounds nuw %"class.cv::cuda::GpuMat", ptr %41, i32 0, i32 8
  %43 = load ptr, ptr %42, align 8, !tbaa !36
  store ptr %43, ptr %40, align 8, !tbaa !36
  %44 = getelementptr inbounds nuw %"class.cv::cuda::GpuMat", ptr %7, i32 0, i32 5
  %45 = load ptr, ptr %44, align 8, !tbaa !33
  %46 = icmp ne ptr %45, null
  br i1 %46, label %47, label %52

47:                                               ; preds = %2
  %48 = getelementptr inbounds nuw %"class.cv::cuda::GpuMat", ptr %7, i32 0, i32 5
  %49 = load ptr, ptr %48, align 8, !tbaa !33
  store i32 1, ptr %5, align 4, !tbaa !16
  %50 = load i32, ptr %5, align 4
  %51 = atomicrmw add ptr %49, i32 %50 acq_rel, align 4
  store i32 %51, ptr %6, align 4
  br label %52

52:                                               ; preds = %47, %2
  ret void
}

; Function Attrs: inlinehint mustprogress nounwind uwtable
define linkonce_odr hidden void @_ZN2cv11_InputArrayD2Ev(ptr noundef nonnull align 8 dereferenceable(24) %0) unnamed_addr #4 comdat align 2 {
  %2 = alloca ptr, align 8
  store ptr %0, ptr %2, align 8, !tbaa !3
  ret void
}

; Function Attrs: inlinehint mustprogress uwtable
define linkonce_odr hidden void @_ZN2cv12_OutputArrayC2ERNS_4cuda6GpuMatE(ptr noundef nonnull align 8 dereferenceable(24) %0, ptr noundef nonnull align 8 dereferenceable(64) %1) unnamed_addr #3 comdat align 2 {
  %3 = alloca ptr, align 8
  %4 = alloca ptr, align 8
  store ptr %0, ptr %3, align 8, !tbaa !10
  store ptr %1, ptr %4, align 8, !tbaa !12
  %5 = load ptr, ptr %3, align 8
  call void @_ZN2cv11_InputArrayC2Ev(ptr noundef nonnull align 8 dereferenceable(24) %5)
  %6 = load ptr, ptr %4, align 8, !tbaa !12
  call void @_ZN2cv11_InputArray4initEiPKv(ptr noundef nonnull align 8 dereferenceable(24) %5, i32 noundef 34144256, ptr noundef %6)
  ret void
}

; Function Attrs: mustprogress uwtable
define void @_ZN2cv8superres12arrGetGpuMatERKNS_11_InputArrayERNS_4cuda6GpuMatE(ptr dead_on_unwind noalias writable sret(%"class.cv::cuda::GpuMat") align 8 %0, ptr noundef nonnull align 8 dereferenceable(24) %1, ptr noundef nonnull align 8 dereferenceable(64) %2) #0 personality ptr @__gxx_personality_v0 {
  %4 = alloca ptr, align 8
  %5 = alloca ptr, align 8
  %6 = alloca ptr, align 8
  %7 = alloca %"class.cv::ogl::Buffer", align 8
  %8 = alloca %"class.cv::_OutputArray", align 8
  %9 = alloca ptr, align 8
  %10 = alloca i32, align 4
  %11 = alloca %"class.cv::_InputArray", align 8
  %12 = alloca %"class.cv::Mat", align 8
  store ptr %0, ptr %4, align 8
  store ptr %1, ptr %5, align 8, !tbaa !3
  store ptr %2, ptr %6, align 8, !tbaa !12
  %13 = load ptr, ptr %5, align 8, !tbaa !3
  %14 = call noundef i32 @_ZNK2cv11_InputArray4kindEv(ptr noundef nonnull align 8 dereferenceable(24) %13)
  switch i32 %14, label %32 [
    i32 589824, label %15
    i32 458752, label %17
  ]

15:                                               ; preds = %3
  %16 = load ptr, ptr %5, align 8, !tbaa !3
  call void @_ZNK2cv11_InputArray9getGpuMatEv(ptr dead_on_unwind writable sret(%"class.cv::cuda::GpuMat") align 8 %0, ptr noundef nonnull align 8 dereferenceable(24) %16)
  br label %47

17:                                               ; preds = %3
  call void @llvm.lifetime.start.p0(i64 32, ptr %7) #15
  %18 = load ptr, ptr %5, align 8, !tbaa !3
  call void @_ZNK2cv11_InputArray12getOGlBufferEv(ptr dead_on_unwind writable sret(%"class.cv::ogl::Buffer") align 8 %7, ptr noundef nonnull align 8 dereferenceable(24) %18)
  call void @llvm.lifetime.start.p0(i64 24, ptr %8) #15
  %19 = load ptr, ptr %6, align 8, !tbaa !12
  invoke void @_ZN2cv12_OutputArrayC2ERNS_4cuda6GpuMatE(ptr noundef nonnull align 8 dereferenceable(24) %8, ptr noundef nonnull align 8 dereferenceable(64) %19)
          to label %20 unwind label %23

20:                                               ; preds = %17
  invoke void @_ZNK2cv3ogl6Buffer6copyToERKNS_12_OutputArrayE(ptr noundef nonnull align 8 dereferenceable(28) %7, ptr noundef nonnull align 8 dereferenceable(24) %8)
          to label %21 unwind label %27

21:                                               ; preds = %20
  call void @_ZN2cv11_InputArrayD2Ev(ptr noundef nonnull align 8 dereferenceable(24) %8) #15
  call void @llvm.lifetime.end.p0(i64 24, ptr %8) #15
  call void @_ZN2cv3ogl6BufferD2Ev(ptr noundef nonnull align 8 dereferenceable(28) %7) #15
  call void @llvm.lifetime.end.p0(i64 32, ptr %7) #15
  %22 = load ptr, ptr %6, align 8, !tbaa !12
  call void @_ZN2cv4cuda6GpuMatC2ERKS1_(ptr noundef nonnull align 8 dereferenceable(64) %0, ptr noundef nonnull align 8 dereferenceable(64) %22)
  br label %47

23:                                               ; preds = %17
  %24 = landingpad { ptr, i32 }
          cleanup
  %25 = extractvalue { ptr, i32 } %24, 0
  store ptr %25, ptr %9, align 8
  %26 = extractvalue { ptr, i32 } %24, 1
  store i32 %26, ptr %10, align 4
  br label %31

27:                                               ; preds = %20
  %28 = landingpad { ptr, i32 }
          cleanup
  %29 = extractvalue { ptr, i32 } %28, 0
  store ptr %29, ptr %9, align 8
  %30 = extractvalue { ptr, i32 } %28, 1
  store i32 %30, ptr %10, align 4
  call void @_ZN2cv11_InputArrayD2Ev(ptr noundef nonnull align 8 dereferenceable(24) %8) #15
  br label %31

31:                                               ; preds = %27, %23
  call void @llvm.lifetime.end.p0(i64 24, ptr %8) #15
  call void @_ZN2cv3ogl6BufferD2Ev(ptr noundef nonnull align 8 dereferenceable(28) %7) #15
  call void @llvm.lifetime.end.p0(i64 32, ptr %7) #15
  br label %48

32:                                               ; preds = %3
  %33 = load ptr, ptr %6, align 8, !tbaa !12
  call void @llvm.lifetime.start.p0(i64 24, ptr %11) #15
  call void @llvm.lifetime.start.p0(i64 96, ptr %12) #15
  %34 = load ptr, ptr %5, align 8, !tbaa !3
  call void @_ZNK2cv11_InputArray6getMatEi(ptr dead_on_unwind writable sret(%"class.cv::Mat") align 8 %12, ptr noundef nonnull align 8 dereferenceable(24) %34, i32 noundef -1)
  invoke void @_ZN2cv11_InputArrayC2ERKNS_3MatE(ptr noundef nonnull align 8 dereferenceable(24) %11, ptr noundef nonnull align 8 dereferenceable(96) %12)
          to label %35 unwind label %38

35:                                               ; preds = %32
  invoke void @_ZN2cv4cuda6GpuMat6uploadERKNS_11_InputArrayE(ptr noundef nonnull align 8 dereferenceable(64) %33, ptr noundef nonnull align 8 dereferenceable(24) %11)
          to label %36 unwind label %42

36:                                               ; preds = %35
  call void @_ZN2cv11_InputArrayD2Ev(ptr noundef nonnull align 8 dereferenceable(24) %11) #15
  call void @_ZN2cv3MatD1Ev(ptr noundef nonnull align 8 dereferenceable(96) %12) #15
  call void @llvm.lifetime.end.p0(i64 96, ptr %12) #15
  call void @llvm.lifetime.end.p0(i64 24, ptr %11) #15
  %37 = load ptr, ptr %6, align 8, !tbaa !12
  call void @_ZN2cv4cuda6GpuMatC2ERKS1_(ptr noundef nonnull align 8 dereferenceable(64) %0, ptr noundef nonnull align 8 dereferenceable(64) %37)
  br label %47

38:                                               ; preds = %32
  %39 = landingpad { ptr, i32 }
          cleanup
  %40 = extractvalue { ptr, i32 } %39, 0
  store ptr %40, ptr %9, align 8
  %41 = extractvalue { ptr, i32 } %39, 1
  store i32 %41, ptr %10, align 4
  br label %46

42:                                               ; preds = %35
  %43 = landingpad { ptr, i32 }
          cleanup
  %44 = extractvalue { ptr, i32 } %43, 0
  store ptr %44, ptr %9, align 8
  %45 = extractvalue { ptr, i32 } %43, 1
  store i32 %45, ptr %10, align 4
  call void @_ZN2cv11_InputArrayD2Ev(ptr noundef nonnull align 8 dereferenceable(24) %11) #15
  br label %46

46:                                               ; preds = %42, %38
  call void @_ZN2cv3MatD1Ev(ptr noundef nonnull align 8 dereferenceable(96) %12) #15
  call void @llvm.lifetime.end.p0(i64 96, ptr %12) #15
  call void @llvm.lifetime.end.p0(i64 24, ptr %11) #15
  br label %48

47:                                               ; preds = %36, %21, %15
  ret void

48:                                               ; preds = %46, %31
  %49 = load ptr, ptr %9, align 8
  %50 = load i32, ptr %10, align 4
  %51 = insertvalue { ptr, i32 } poison, ptr %49, 0
  %52 = insertvalue { ptr, i32 } %51, i32 %50, 1
  resume { ptr, i32 } %52
}