; Function Attrs: mustprogress uwtable
define void @_ZN2cv8superres12arrGetGpuMatERKNS_11_InputArrayERNS_4cuda6GpuMatE(ptr dead_on_unwind noalias writable sret(%"class.cv::cuda::GpuMat") align 8 %0, ptr noundef nonnull align 8 dereferenceable(24) %1, ptr noundef nonnull align 8 dereferenceable(64) %2) local_unnamed_addr #0 personality ptr @__gxx_personality_v0 {
  %4 = alloca %"class.cv::ogl::Buffer", align 8
  %5 = alloca %"class.cv::_OutputArray", align 8
  %6 = alloca %"class.cv::_InputArray", align 8
  %7 = alloca %"class.cv::Mat", align 8
  %8 = tail call noundef i32 @_ZNK2cv11_InputArray4kindEv(ptr noundef nonnull align 8 dereferenceable(24) %1)
  switch i32 %8, label %66 [
    i32 589824, label %9
    i32 458752, label %10
  ]

9:                                                ; preds = %3
  tail call void @_ZNK2cv11_InputArray9getGpuMatEv(ptr dead_on_unwind writable sret(%"class.cv::cuda::GpuMat") align 8 %0, ptr noundef nonnull align 8 dereferenceable(24) %1)
  br label %_ZN2cv4cuda6GpuMatC2ERKS1_.exit

10:                                               ; preds = %3
  call void @llvm.lifetime.start.p0(i64 32, ptr nonnull %4) #11
  call void @_ZNK2cv11_InputArray12getOGlBufferEv(ptr dead_on_unwind nonnull writable sret(%"class.cv::ogl::Buffer") align 8 %4, ptr noundef nonnull align 8 dereferenceable(24) %1)
  call void @llvm.lifetime.start.p0(i64 24, ptr nonnull %5) #11
  %11 = getelementptr inbounds nuw i8, ptr %5, i64 8
  %12 = getelementptr inbounds nuw i8, ptr %5, i64 16
  store i64 0, ptr %12, align 8
  store i32 34144256, ptr %5, align 8, !tbaa !3
  store ptr %2, ptr %11, align 8, !tbaa !10
  invoke void @_ZNK2cv3ogl6Buffer6copyToERKNS_12_OutputArrayE(ptr noundef nonnull align 8 dereferenceable(28) %4, ptr noundef nonnull align 8 dereferenceable(24) %5)
          to label %13 unwind label %64

13:                                               ; preds = %10
  call void @llvm.lifetime.end.p0(i64 24, ptr nonnull %5) #11
  %14 = getelementptr inbounds nuw i8, ptr %4, i64 8
  %15 = load ptr, ptr %14, align 8, !tbaa !11
  %.not.i.i.i = icmp eq ptr %15, null
  br i1 %.not.i.i.i, label %_ZN2cv3ogl6BufferD2Ev.exit, label %16

16:                                               ; preds = %13
  %17 = getelementptr inbounds nuw i8, ptr %15, i64 8
  %18 = load atomic i64, ptr %17 acquire, align 8
  %19 = icmp eq i64 %18, 4294967297
  %20 = trunc i64 %18 to i32
  br i1 %19, label %21, label %29

21:                                               ; preds = %16
  store i32 0, ptr %17, align 8, !tbaa !14
  %22 = getelementptr inbounds nuw i8, ptr %15, i64 12
  store i32 0, ptr %22, align 4, !tbaa !16
  %23 = load ptr, ptr %15, align 8, !tbaa !17
  %24 = getelementptr inbounds nuw i8, ptr %23, i64 16
  %25 = load ptr, ptr %24, align 8
  call void %25(ptr noundef nonnull align 8 dereferenceable(16) %15) #11
  %26 = load ptr, ptr %15, align 8, !tbaa !17
  %27 = getelementptr inbounds nuw i8, ptr %26, i64 24
  %28 = load ptr, ptr %27, align 8
  call void %28(ptr noundef nonnull align 8 dereferenceable(16) %15) #11
  br label %_ZN2cv3ogl6BufferD2Ev.exit

29:                                               ; preds = %16
  %30 = load i8, ptr @__libc_single_threaded, align 1, !tbaa !19
  %.not.i.i.i.i = icmp eq i8 %30, 0
  br i1 %.not.i.i.i.i, label %33, label %31

31:                                               ; preds = %29
  %32 = add nsw i32 %20, -1
  store i32 %32, ptr %17, align 4, !tbaa !20
  br label %_ZN9__gnu_cxx27__exchange_and_add_dispatchEPii.exit.i.i.i.i

33:                                               ; preds = %29
  %34 = atomicrmw volatile add ptr %17, i32 -1 acq_rel, align 4
  br label %_ZN9__gnu_cxx27__exchange_and_add_dispatchEPii.exit.i.i.i.i

_ZN9__gnu_cxx27__exchange_and_add_dispatchEPii.exit.i.i.i.i: ; preds = %33, %31
  %.0.i.i.i.i.i = phi i32 [ %20, %31 ], [ %34, %33 ]
  %35 = icmp eq i32 %.0.i.i.i.i.i, 1
  br i1 %35, label %36, label %_ZN2cv3ogl6BufferD2Ev.exit, !prof !21

36:                                               ; preds = %_ZN9__gnu_cxx27__exchange_and_add_dispatchEPii.exit.i.i.i.i
  call void @_ZNSt16_Sp_counted_baseILN9__gnu_cxx12_Lock_policyE2EE24_M_release_last_use_coldEv(ptr noundef nonnull align 8 dereferenceable(16) %15) #11
  br label %_ZN2cv3ogl6BufferD2Ev.exit

_ZN2cv3ogl6BufferD2Ev.exit:                       ; preds = %13, %21, %_ZN9__gnu_cxx27__exchange_and_add_dispatchEPii.exit.i.i.i.i, %36
  call void @llvm.lifetime.end.p0(i64 32, ptr nonnull %4) #11
  %37 = load i32, ptr %2, align 8, !tbaa !25
  store i32 %37, ptr %0, align 8, !tbaa !25
  %38 = getelementptr inbounds nuw i8, ptr %0, i64 4
  %39 = getelementptr inbounds nuw i8, ptr %2, i64 4
  %40 = load i32, ptr %39, align 4, !tbaa !31
  store i32 %40, ptr %38, align 4, !tbaa !31
  %41 = getelementptr inbounds nuw i8, ptr %0, i64 8
  %42 = getelementptr inbounds nuw i8, ptr %2, i64 8
  %43 = load i32, ptr %42, align 8, !tbaa !32
  store i32 %43, ptr %41, align 8, !tbaa !32
  %44 = getelementptr inbounds nuw i8, ptr %0, i64 16
  %45 = getelementptr inbounds nuw i8, ptr %2, i64 16
  %46 = load i64, ptr %45, align 8, !tbaa !33
  store i64 %46, ptr %44, align 8, !tbaa !33
  %47 = getelementptr inbounds nuw i8, ptr %0, i64 24
  %48 = getelementptr inbounds nuw i8, ptr %2, i64 24
  %49 = load ptr, ptr %48, align 8, !tbaa !34
  store ptr %49, ptr %47, align 8, !tbaa !34
  %50 = getelementptr inbounds nuw i8, ptr %0, i64 32
  %51 = getelementptr inbounds nuw i8, ptr %2, i64 32
  %52 = load ptr, ptr %51, align 8, !tbaa !35
  store ptr %52, ptr %50, align 8, !tbaa !35
  %53 = getelementptr inbounds nuw i8, ptr %0, i64 40
  %54 = getelementptr inbounds nuw i8, ptr %2, i64 40
  %55 = load ptr, ptr %54, align 8, !tbaa !36
  store ptr %55, ptr %53, align 8, !tbaa !36
  %56 = getelementptr inbounds nuw i8, ptr %0, i64 48
  %57 = getelementptr inbounds nuw i8, ptr %2, i64 48
  %58 = load ptr, ptr %57, align 8, !tbaa !37
  store ptr %58, ptr %56, align 8, !tbaa !37
  %59 = getelementptr inbounds nuw i8, ptr %0, i64 56
  %60 = getelementptr inbounds nuw i8, ptr %2, i64 56
  %61 = load ptr, ptr %60, align 8, !tbaa !38
  store ptr %61, ptr %59, align 8, !tbaa !38
  %.not.i = icmp eq ptr %52, null
  br i1 %.not.i, label %_ZN2cv4cuda6GpuMatC2ERKS1_.exit, label %62

62:                                               ; preds = %_ZN2cv3ogl6BufferD2Ev.exit
  %63 = atomicrmw add ptr %52, i32 1 acq_rel, align 4
  br label %_ZN2cv4cuda6GpuMatC2ERKS1_.exit

64:                                               ; preds = %10
  %65 = landingpad { ptr, i32 }
          cleanup
  call void @llvm.lifetime.end.p0(i64 24, ptr nonnull %5) #11
  call void @_ZN2cv3ogl6BufferD2Ev(ptr noundef nonnull align 8 dereferenceable(28) %4) #11
  call void @llvm.lifetime.end.p0(i64 32, ptr nonnull %4) #11
  br label %107

66:                                               ; preds = %3
  call void @llvm.lifetime.start.p0(i64 24, ptr nonnull %6) #11
  call void @llvm.lifetime.start.p0(i64 96, ptr nonnull %7) #11
  %67 = tail call noundef i32 @_ZNK2cv11_InputArray4kindEv(ptr noundef nonnull align 8 dereferenceable(24) %1), !noalias !39
  %68 = icmp eq i32 %67, 65536
  br i1 %68, label %69, label %72

69:                                               ; preds = %66
  %70 = getelementptr inbounds nuw i8, ptr %1, i64 8
  %71 = load ptr, ptr %70, align 8, !tbaa !10, !noalias !39
  call void @_ZN2cv3MatC1ERKS0_(ptr noundef nonnull align 8 dereferenceable(96) %7, ptr noundef nonnull align 8 dereferenceable(96) %71)
  br label %73

72:                                               ; preds = %66
  call void @_ZNK2cv11_InputArray7getMat_Ei(ptr dead_on_unwind nonnull writable sret(%"class.cv::Mat") align 8 %7, ptr noundef nonnull align 8 dereferenceable(24) %1, i32 noundef -1)
  br label %73

73:                                               ; preds = %72, %69
  %74 = getelementptr inbounds nuw i8, ptr %6, i64 16
  store i32 0, ptr %74, align 8, !tbaa !42
  %75 = getelementptr inbounds nuw i8, ptr %6, i64 20
  store i32 0, ptr %75, align 4, !tbaa !43
  store i32 16842752, ptr %6, align 8, !tbaa !3
  %76 = getelementptr inbounds nuw i8, ptr %6, i64 8
  store ptr %7, ptr %76, align 8, !tbaa !10
  invoke void @_ZN2cv4cuda6GpuMat6uploadERKNS_11_InputArrayE(ptr noundef nonnull align 8 dereferenceable(64) %2, ptr noundef nonnull align 8 dereferenceable(24) %6)
          to label %77 unwind label %105

77:                                               ; preds = %73
  call void @_ZN2cv3MatD1Ev(ptr noundef nonnull align 8 dereferenceable(96) %7) #11
  call void @llvm.lifetime.end.p0(i64 96, ptr nonnull %7) #11
  call void @llvm.lifetime.end.p0(i64 24, ptr nonnull %6) #11
  %78 = load i32, ptr %2, align 8, !tbaa !25
  store i32 %78, ptr %0, align 8, !tbaa !25
  %79 = getelementptr inbounds nuw i8, ptr %0, i64 4
  %80 = getelementptr inbounds nuw i8, ptr %2, i64 4
  %81 = load i32, ptr %80, align 4, !tbaa !31
  store i32 %81, ptr %79, align 4, !tbaa !31
  %82 = getelementptr inbounds nuw i8, ptr %0, i64 8
  %83 = getelementptr inbounds nuw i8, ptr %2, i64 8
  %84 = load i32, ptr %83, align 8, !tbaa !32
  store i32 %84, ptr %82, align 8, !tbaa !32
  %85 = getelementptr inbounds nuw i8, ptr %0, i64 16
  %86 = getelementptr inbounds nuw i8, ptr %2, i64 16
  %87 = load i64, ptr %86, align 8, !tbaa !33
  store i64 %87, ptr %85, align 8, !tbaa !33
  %88 = getelementptr inbounds nuw i8, ptr %0, i64 24
  %89 = getelementptr inbounds nuw i8, ptr %2, i64 24
  %90 = load ptr, ptr %89, align 8, !tbaa !34
  store ptr %90, ptr %88, align 8, !tbaa !34
  %91 = getelementptr inbounds nuw i8, ptr %0, i64 32
  %92 = getelementptr inbounds nuw i8, ptr %2, i64 32
  %93 = load ptr, ptr %92, align 8, !tbaa !35
  store ptr %93, ptr %91, align 8, !tbaa !35
  %94 = getelementptr inbounds nuw i8, ptr %0, i64 40
  %95 = getelementptr inbounds nuw i8, ptr %2, i64 40
  %96 = load ptr, ptr %95, align 8, !tbaa !36
  store ptr %96, ptr %94, align 8, !tbaa !36
  %97 = getelementptr inbounds nuw i8, ptr %0, i64 48
  %98 = getelementptr inbounds nuw i8, ptr %2, i64 48
  %99 = load ptr, ptr %98, align 8, !tbaa !37
  store ptr %99, ptr %97, align 8, !tbaa !37
  %100 = getelementptr inbounds nuw i8, ptr %0, i64 56
  %101 = getelementptr inbounds nuw i8, ptr %2, i64 56
  %102 = load ptr, ptr %101, align 8, !tbaa !38
  store ptr %102, ptr %100, align 8, !tbaa !38
  %.not.i16 = icmp eq ptr %93, null
  br i1 %.not.i16, label %_ZN2cv4cuda6GpuMatC2ERKS1_.exit, label %103

103:                                              ; preds = %77
  %104 = atomicrmw add ptr %93, i32 1 acq_rel, align 4
  br label %_ZN2cv4cuda6GpuMatC2ERKS1_.exit

105:                                              ; preds = %73
  %106 = landingpad { ptr, i32 }
          cleanup
  call void @_ZN2cv3MatD1Ev(ptr noundef nonnull align 8 dereferenceable(96) %7) #11
  call void @llvm.lifetime.end.p0(i64 96, ptr nonnull %7) #11
  call void @llvm.lifetime.end.p0(i64 24, ptr nonnull %6) #11
  br label %107

_ZN2cv4cuda6GpuMatC2ERKS1_.exit:                  ; preds = %103, %77, %62, %_ZN2cv3ogl6BufferD2Ev.exit, %9
  ret void

107:                                              ; preds = %105, %64
  %.pn13.pn = phi { ptr, i32 } [ %106, %105 ], [ %65, %64 ]
  resume { ptr, i32 } %.pn13.pn
}